target datalayout = "e-m:e-p270:32:32-p271:32:32-p272:64:64-i64:64-i128:128-f80:128-n8:16:32:64-S128"
target triple = "x86_64-pc-linux-gnu"

%struct.private_data = type { i32, %struct.bz_stream, i64, ptr, i64 }
%struct.bz_stream = type { ptr, i32, i32, i32, ptr, i32, i32, i32, ptr, ptr, ptr, ptr }
%struct.archive_write_filter = type { i64, ptr, ptr, ptr, ptr, ptr, ptr, ptr, ptr, ptr, ptr, i32, i32, i32, i32 }

@.str.9 = private unnamed_addr constant [55 x i8] c"Bzip2 compression failed; BZ2_bzCompress() returned %d\00", align 1
@.str.10 = private unnamed_addr constant [30 x i8] c"Failed to clean up compressor\00", align 1

; Function Attrs: nounwind uwtable
define internal i32 @drive_compressor(ptr noundef %0, ptr noundef %1, i32 noundef %2) #0 {
  %4 = alloca i32, align 4
  %5 = alloca ptr, align 8
  %6 = alloca ptr, align 8
  %7 = alloca i32, align 4
  %8 = alloca i32, align 4
  %9 = alloca i32, align 4
  store ptr %0, ptr %5, align 8, !tbaa !11
  store ptr %1, ptr %6, align 8, !tbaa !15
  store i32 %2, ptr %7, align 4, !tbaa !13
  call void @llvm.lifetime.start.p0(i64 4, ptr %8) #8
  br label %10

10:                                               ; preds = %79, %3
  %11 = load ptr, ptr %6, align 8, !tbaa !15
  %12 = getelementptr inbounds nuw %struct.private_data, ptr %11, i32 0, i32 1
  %13 = getelementptr inbounds nuw %struct.bz_stream, ptr %12, i32 0, i32 5
  %14 = load i32, ptr %13, align 8, !tbaa !35
  %15 = icmp eq i32 %14, 0
  br i1 %15, label %16, label %44

16:                                               ; preds = %10
  %17 = load ptr, ptr %5, align 8, !tbaa !11
  %18 = getelementptr inbounds nuw %struct.archive_write_filter, ptr %17, i32 0, i32 2
  %19 = load ptr, ptr %18, align 8, !tbaa !32
  %20 = load ptr, ptr %6, align 8, !tbaa !15
  %21 = getelementptr inbounds nuw %struct.private_data, ptr %20, i32 0, i32 3
  %22 = load ptr, ptr %21, align 8, !tbaa !33
  %23 = load ptr, ptr %6, align 8, !tbaa !15
  %24 = getelementptr inbounds nuw %struct.private_data, ptr %23, i32 0, i32 4
  %25 = load i64, ptr %24, align 8, !tbaa !34
  %26 = call i32 @__archive_write_filter(ptr noundef %19, ptr noundef %22, i64 noundef %25)
  store i32 %26, ptr %8, align 4, !tbaa !13
  %27 = load i32, ptr %8, align 4, !tbaa !13
  %28 = icmp ne i32 %27, 0
  br i1 %28, label %29, label %30

29:                                               ; preds = %16
  store i32 -30, ptr %4, align 4
  store i32 1, ptr %9, align 4
  br label %80

30:                                               ; preds = %16
  %31 = load ptr, ptr %6, align 8, !tbaa !15
  %32 = getelementptr inbounds nuw %struct.private_data, ptr %31, i32 0, i32 3
  %33 = load ptr, ptr %32, align 8, !tbaa !33
  %34 = load ptr, ptr %6, align 8, !tbaa !15
  %35 = getelementptr inbounds nuw %struct.private_data, ptr %34, i32 0, i32 1
  %36 = getelementptr inbounds nuw %struct.bz_stream, ptr %35, i32 0, i32 4
  store ptr %33, ptr %36, align 8, !tbaa !43
  %37 = load ptr, ptr %6, align 8, !tbaa !15
  %38 = getelementptr inbounds nuw %struct.private_data, ptr %37, i32 0, i32 4
  %39 = load i64, ptr %38, align 8, !tbaa !34
  %40 = trunc i64 %39 to i32
  %41 = load ptr, ptr %6, align 8, !tbaa !15
  %42 = getelementptr inbounds nuw %struct.private_data, ptr %41, i32 0, i32 1
  %43 = getelementptr inbounds nuw %struct.bz_stream, ptr %42, i32 0, i32 5
  store i32 %40, ptr %43, align 8, !tbaa !35
  br label %44

44:                                               ; preds = %30, %10
  %45 = load i32, ptr %7, align 4, !tbaa !13
  %46 = icmp ne i32 %45, 0
  br i1 %46, label %54, label %47

47:                                               ; preds = %44
  %48 = load ptr, ptr %6, align 8, !tbaa !15
  %49 = getelementptr inbounds nuw %struct.private_data, ptr %48, i32 0, i32 1
  %50 = getelementptr inbounds nuw %struct.bz_stream, ptr %49, i32 0, i32 1
  %51 = load i32, ptr %50, align 8, !tbaa !48
  %52 = icmp eq i32 %51, 0
  br i1 %52, label %53, label %54

53:                                               ; preds = %47
  store i32 0, ptr %4, align 4
  store i32 1, ptr %9, align 4
  br label %80

54:                                               ; preds = %47, %44
  %55 = load ptr, ptr %6, align 8, !tbaa !15
  %56 = getelementptr inbounds nuw %struct.private_data, ptr %55, i32 0, i32 1
  %57 = load i32, ptr %7, align 4, !tbaa !13
  %58 = icmp ne i32 %57, 0
  %59 = select i1 %58, i32 2, i32 0
  %60 = call i32 @BZ2_bzCompress(ptr noundef %56, i32 noundef %59)
  store i32 %60, ptr %8, align 4, !tbaa !13
  %61 = load i32, ptr %8, align 4, !tbaa !13
  switch i32 %61, label %74 [
    i32 1, label %62
    i32 3, label %79
    i32 4, label %73
  ]

62:                                               ; preds = %54
  %63 = load i32, ptr %7, align 4, !tbaa !13
  %64 = icmp ne i32 %63, 0
  br i1 %64, label %72, label %65

65:                                               ; preds = %62
  %66 = load ptr, ptr %6, align 8, !tbaa !15
  %67 = getelementptr inbounds nuw %struct.private_data, ptr %66, i32 0, i32 1
  %68 = getelementptr inbounds nuw %struct.bz_stream, ptr %67, i32 0, i32 1
  %69 = load i32, ptr %68, align 8, !tbaa !48
  %70 = icmp eq i32 %69, 0
  br i1 %70, label %71, label %72

71:                                               ; preds = %65
  store i32 0, ptr %4, align 4
  store i32 1, ptr %9, align 4
  br label %80

72:                                               ; preds = %65, %62
  br label %79

73:                                               ; preds = %54
  store i32 0, ptr %4, align 4
  store i32 1, ptr %9, align 4
  br label %80

74:                                               ; preds = %54
  %75 = load ptr, ptr %5, align 8, !tbaa !11
  %76 = getelementptr inbounds nuw %struct.archive_write_filter, ptr %75, i32 0, i32 1
  %77 = load ptr, ptr %76, align 8, !tbaa !36
  %78 = load i32, ptr %8, align 4, !tbaa !13
  call void (ptr, i32, ptr, ...) @archive_set_error(ptr noundef %77, i32 noundef 22, ptr noundef @.str.9, i32 noundef %78)
  store i32 -30, ptr %4, align 4
  store i32 1, ptr %9, align 4
  br label %80

79:                                               ; preds = %54, %72
  br label %10

80:                                               ; preds = %74, %73, %71, %53, %29
  call void @llvm.lifetime.end.p0(i64 4, ptr %8) #8
  %81 = load i32, ptr %4, align 4
  ret i32 %81
}

; Function Attrs: nounwind uwtable
define internal i32 @archive_compressor_bzip2_close(ptr noundef %0) #0 {
  %2 = alloca ptr, align 8
  %3 = alloca ptr, align 8
  %4 = alloca i32, align 4
  store ptr %0, ptr %2, align 8, !tbaa !11
  call void @llvm.lifetime.start.p0(i64 8, ptr %3) #8
  %5 = load ptr, ptr %2, align 8, !tbaa !11
  %6 = getelementptr inbounds nuw %struct.archive_write_filter, ptr %5, i32 0, i32 9
  %7 = load ptr, ptr %6, align 8, !tbaa !22
  store ptr %7, ptr %3, align 8, !tbaa !15
  call void @llvm.lifetime.start.p0(i64 4, ptr %4) #8
  %8 = load ptr, ptr %2, align 8, !tbaa !11
  %9 = load ptr, ptr %3, align 8, !tbaa !15
  %10 = call i32 @drive_compressor(ptr noundef %8, ptr noundef %9, i32 noundef 1)
  store i32 %10, ptr %4, align 4, !tbaa !13
  %11 = load i32, ptr %4, align 4, !tbaa !13
  %12 = icmp eq i32 %11, 0
  br i1 %12, label %13, label %30

13:                                               ; preds = %1
  %14 = load ptr, ptr %2, align 8, !tbaa !11
  %15 = getelementptr inbounds nuw %struct.archive_write_filter, ptr %14, i32 0, i32 2
  %16 = load ptr, ptr %15, align 8, !tbaa !32
  %17 = load ptr, ptr %3, align 8, !tbaa !15
  %18 = getelementptr inbounds nuw %struct.private_data, ptr %17, i32 0, i32 3
  %19 = load ptr, ptr %18, align 8, !tbaa !33
  %20 = load ptr, ptr %3, align 8, !tbaa !15
  %21 = getelementptr inbounds nuw %struct.private_data, ptr %20, i32 0, i32 4
  %22 = load i64, ptr %21, align 8, !tbaa !34
  %23 = load ptr, ptr %3, align 8, !tbaa !15
  %24 = getelementptr inbounds nuw %struct.private_data, ptr %23, i32 0, i32 1
  %25 = getelementptr inbounds nuw %struct.bz_stream, ptr %24, i32 0, i32 5
  %26 = load i32, ptr %25, align 8, !tbaa !35
  %27 = zext i32 %26 to i64
  %28 = sub i64 %22, %27
  %29 = call i32 @__archive_write_filter(ptr noundef %16, ptr noundef %19, i64 noundef %28)
  store i32 %29, ptr %4, align 4, !tbaa !13
  br label %30

30:                                               ; preds = %13, %1
  %31 = load ptr, ptr %3, align 8, !tbaa !15
  %32 = getelementptr inbounds nuw %struct.private_data, ptr %31, i32 0, i32 1
  %33 = call i32 @BZ2_bzCompressEnd(ptr noundef %32)
  switch i32 %33, label %34 [
    i32 0, label %38
  ]

34:                                               ; preds = %30
  %35 = load ptr, ptr %2, align 8, !tbaa !11
  %36 = getelementptr inbounds nuw %struct.archive_write_filter, ptr %35, i32 0, i32 1
  %37 = load ptr, ptr %36, align 8, !tbaa !36
  call void (ptr, i32, ptr, ...) @archive_set_error(ptr noundef %37, i32 noundef 22, ptr noundef @.str.10)
  store i32 -30, ptr %4, align 4, !tbaa !13
  br label %38

38:                                               ; preds = %34, %30
  %39 = load i32, ptr %4, align 4, !tbaa !13
  call void @llvm.lifetime.end.p0(i64 4, ptr %4) #8
  call void @llvm.lifetime.end.p0(i64 8, ptr %3) #8
  ret i32 %39
}