; Function Attrs: nounwind uwtable
define internal i32 @archive_compressor_bzip2_close(ptr noundef readonly captures(none) %0) #0 {
  %2 = getelementptr inbounds nuw i8, ptr %0, i64 72
  %3 = load ptr, ptr %2, align 8, !tbaa !13
  %4 = getelementptr inbounds nuw i8, ptr %3, i64 8
  %5 = getelementptr inbounds nuw i8, ptr %3, i64 40
  %6 = getelementptr inbounds nuw i8, ptr %0, i64 16
  %7 = getelementptr inbounds nuw i8, ptr %3, i64 96
  %8 = getelementptr inbounds nuw i8, ptr %3, i64 104
  %9 = getelementptr inbounds nuw i8, ptr %3, i64 32
  br label %.split.i

.split.i:                                         ; preds = %.split.i.backedge, %1
  %10 = load i32, ptr %5, align 8, !tbaa !24
  %11 = icmp eq i32 %10, 0
  br i1 %11, label %12, label %21

12:                                               ; preds = %.split.i
  %13 = load ptr, ptr %6, align 8, !tbaa !25
  %14 = load ptr, ptr %7, align 8, !tbaa !26
  %15 = load i64, ptr %8, align 8, !tbaa !27
  %16 = tail call i32 @__archive_write_filter(ptr noundef %13, ptr noundef %14, i64 noundef %15) #9
  %.not.i = icmp eq i32 %16, 0
  br i1 %.not.i, label %17, label %drive_compressor.exit.thread

17:                                               ; preds = %12
  %18 = load ptr, ptr %7, align 8, !tbaa !26
  store ptr %18, ptr %9, align 8, !tbaa !28
  %19 = load i64, ptr %8, align 8, !tbaa !27
  %20 = trunc i64 %19 to i32
  store i32 %20, ptr %5, align 8, !tbaa !24
  br label %21

21:                                               ; preds = %17, %.split.i
  %22 = tail call i32 @BZ2_bzCompress(ptr noundef nonnull %4, i32 noundef 2) #9
  switch i32 %22, label %.split20.us.i [
    i32 1, label %.split.i.backedge
    i32 3, label %.split.i.backedge
    i32 4, label %drive_compressor.exit
  ]

.split.i.backedge:                                ; preds = %21, %21
  br label %.split.i

.split20.us.i:                                    ; preds = %21
  %23 = getelementptr inbounds nuw i8, ptr %0, i64 8
  %24 = load ptr, ptr %23, align 8, !tbaa !29
  tail call void (ptr, i32, ptr, ...) @archive_set_error(ptr noundef %24, i32 noundef 22, ptr noundef nonnull @.str.9, i32 noundef %22) #9
  br label %drive_compressor.exit.thread

drive_compressor.exit:                            ; preds = %21
  %25 = load ptr, ptr %6, align 8, !tbaa !25
  %26 = load ptr, ptr %7, align 8, !tbaa !26
  %27 = load i64, ptr %8, align 8, !tbaa !27
  %28 = load i32, ptr %5, align 8, !tbaa !24
  %29 = zext i32 %28 to i64
  %30 = sub i64 %27, %29
  %31 = tail call i32 @__archive_write_filter(ptr noundef %25, ptr noundef %26, i64 noundef %30) #9
  br label %drive_compressor.exit.thread

drive_compressor.exit.thread:                     ; preds = %12, %.split20.us.i, %drive_compressor.exit
  %.0 = phi i32 [ %31, %drive_compressor.exit ], [ -30, %.split20.us.i ], [ -30, %12 ]
  %32 = tail call i32 @BZ2_bzCompressEnd(ptr noundef nonnull %4) #9
  %cond = icmp eq i32 %32, 0
  br i1 %cond, label %36, label %33

33:                                               ; preds = %drive_compressor.exit.thread
  %34 = getelementptr inbounds nuw i8, ptr %0, i64 8
  %35 = load ptr, ptr %34, align 8, !tbaa !29
  tail call void (ptr, i32, ptr, ...) @archive_set_error(ptr noundef %35, i32 noundef 22, ptr noundef nonnull @.str.10) #9
  br label %36

36:                                               ; preds = %drive_compressor.exit.thread, %33
  %.1 = phi i32 [ %.0, %drive_compressor.exit.thread ], [ -30, %33 ]
  ret i32 %.1
}